target datalayout = "e-m:e-p270:32:32-p271:32:32-p272:64:64-i64:64-i128:128-f80:128-n8:16:32:64-S128"
target triple = "x86_64-unknown-linux-gnu"

%struct.tm = type { i32, i32, i32, i32, i32, i32, i32, i32, i32, i64, ptr }

; Function Attrs: mustprogress nounwind uwtable
define linkonce_odr noundef double @_ZNSt14numeric_limitsIdE9quiet_NaNEv() #0 comdat align 2 {
entry:
  ret double 0x7FF8000000000000
}

; Function Attrs: mustprogress nounwind uwtable
define linkonce_odr noundef zeroext i1 @_ZSt8isfinited(double noundef %__x) #0 comdat {
entry:
  %__x.addr = alloca double, align 8
  store double %__x, ptr %__x.addr, align 8
  %0 = load double, ptr %__x.addr, align 8
  %1 = call i1 @llvm.is.fpclass.f64(double %0, i32 504)
  ret i1 %1
}

; Function Attrs: mustprogress nounwind uwtable
define hidden noundef double @_ZN6hermes2vm16daylightSavingTAEd(double noundef %t) #0 {
entry:
  %retval = alloca double, align 8
  %t.addr = alloca double, align 8
  %seconds = alloca double, align 8
  %local = alloca i64, align 8
  %brokenTime = alloca ptr, align 8
  store double %t, ptr %t.addr, align 8
  %0 = load double, ptr %t.addr, align 8
  %call = call noundef zeroext i1 @_ZSt8isfinited(double noundef %0)
  br i1 %call, label %if.end, label %if.then

if.then:                                          ; preds = %entry
  %call1 = call noundef double @_ZNSt14numeric_limitsIdE9quiet_NaNEv() #7
  store double %call1, ptr %retval, align 8
  br label %return

if.end:                                           ; preds = %entry
  call void @tzset() #7
  %1 = load double, ptr %t.addr, align 8
  %div = fdiv double %1, 1.000000e+03
  store double %div, ptr %seconds, align 8
  store i64 0, ptr %local, align 8
  %2 = load double, ptr %seconds, align 8
  %cmp = fcmp ogt double %2, 8.640000e+12
  br i1 %cmp, label %if.then3, label %lor.lhs.false

lor.lhs.false:                                    ; preds = %if.end
  %3 = load double, ptr %seconds, align 8
  %cmp2 = fcmp olt double %3, -8.640000e+12
  br i1 %cmp2, label %if.then3, label %if.end5

if.then3:                                         ; preds = %lor.lhs.false, %if.end
  %call4 = call noundef double @_ZNSt14numeric_limitsIdE9quiet_NaNEv() #7
  store double %call4, ptr %retval, align 8
  br label %return

if.end5:                                          ; preds = %lor.lhs.false
  %4 = load double, ptr %seconds, align 8
  %conv = fptosi double %4 to i64
  %call6 = call noundef i32 @_ZN6hermes2vm6detail14equivalentTimeEl(i64 noundef %conv)
  %conv7 = sext i32 %call6 to i64
  store i64 %conv7, ptr %local, align 8
  %call8 = call ptr @localtime(ptr noundef %local) #7
  store ptr %call8, ptr %brokenTime, align 8
  %5 = load ptr, ptr %brokenTime, align 8
  %tobool = icmp ne ptr %5, null
  br i1 %tobool, label %if.end11, label %if.then9

if.then9:                                         ; preds = %if.end5
  %call10 = call noundef double @_ZNSt14numeric_limitsIdE9quiet_NaNEv() #7
  store double %call10, ptr %retval, align 8
  br label %return

if.end11:                                         ; preds = %if.end5
  %6 = load ptr, ptr %brokenTime, align 8
  %tm_isdst = getelementptr inbounds %struct.tm, ptr %6, i32 0, i32 8
  %7 = load i32, ptr %tm_isdst, align 8
  %tobool12 = icmp ne i32 %7, 0
  %cond = select i1 %tobool12, double 3.600000e+06, double 0.000000e+00
  store double %cond, ptr %retval, align 8
  br label %return

return:                                           ; preds = %if.end11, %if.then9, %if.then3, %if.then
  %8 = load double, ptr %retval, align 8
  ret double %8
}