; Function Attrs: mustprogress nounwind uwtable
define hidden noundef double @_ZN6hermes2vm16daylightSavingTAEd(double noundef %t) local_unnamed_addr #0 {
entry:
  %local = alloca i64, align 8
  %0 = tail call double @llvm.fabs.f64(double %t)
  %1 = fcmp ueq double %0, 0x7FF0000000000000
  br i1 %1, label %return, label %if.end

if.end:                                           ; preds = %entry
  tail call void @tzset() #17
  %div = fdiv double %t, 1.000000e+03
  %2 = tail call double @llvm.fabs.f64(double %div)
  %or.cond = fcmp ogt double %2, 8.640000e+12
  br i1 %or.cond, label %return, label %if.end5

if.end5:                                          ; preds = %if.end
  %conv = fptosi double %div to i64
  %call6 = tail call noundef i32 @_ZN6hermes2vm6detail14equivalentTimeEl(i64 noundef %conv)
  %conv7 = sext i32 %call6 to i64
  store i64 %conv7, ptr %local, align 8
  %call8 = call ptr @localtime(ptr noundef nonnull %local) #17
  %tobool.not = icmp eq ptr %call8, null
  br i1 %tobool.not, label %return, label %if.end11

if.end11:                                         ; preds = %if.end5
  %tm_isdst = getelementptr inbounds i8, ptr %call8, i64 32
  %3 = load i32, ptr %tm_isdst, align 8
  %tobool12.not = icmp eq i32 %3, 0
  %cond = select i1 %tobool12.not, double 0.000000e+00, double 3.600000e+06
  br label %return

return:                                           ; preds = %if.end5, %if.end, %entry, %if.end11
  %retval.0 = phi double [ %cond, %if.end11 ], [ 0x7FF8000000000000, %entry ], [ 0x7FF8000000000000, %if.end ], [ 0x7FF8000000000000, %if.end5 ]
  ret double %retval.0
}